target datalayout = "e-m:e-p270:32:32-p271:32:32-p272:64:64-i64:64-i128:128-f80:128-n8:16:32:64-S128"
target triple = "x86_64-pc-linux-gnu"

%struct.RBasic = type { i64, i64 }
%struct.iseq_callback_data = type { ptr, ptr }

; Function Attrs: inlinehint nounwind sspstrong willreturn memory(none) uwtable
define internal zeroext i1 @RB_IMMEDIATE_P(i64 noundef %0) #18 {
  %2 = alloca i64, align 8
  store i64 %0, ptr %2, align 8, !tbaa !13
  %3 = load i64, ptr %2, align 8, !tbaa !13
  %4 = and i64 %3, 7
  %5 = icmp ne i64 %4, 0
  ret i1 %5
}

; Function Attrs: inlinehint nounwind sspstrong willreturn memory(none) uwtable
define internal zeroext i1 @RB_SPECIAL_CONST_P(i64 noundef %0) #18 {
  %2 = alloca i64, align 8
  store i64 %0, ptr %2, align 8, !tbaa !13
  %3 = load i64, ptr %2, align 8, !tbaa !13
  %4 = icmp eq i64 %3, 0
  br i1 %4, label %8, label %5

5:                                                ; preds = %1
  %6 = load i64, ptr %2, align 8, !tbaa !13
  %7 = call zeroext i1 @RB_IMMEDIATE_P(i64 noundef %6) #27
  br label %8

8:                                                ; preds = %5, %1
  %9 = phi i1 [ true, %1 ], [ %7, %5 ]
  ret i1 %9
}

; Function Attrs: inlinehint nounwind sspstrong uwtable
define internal i32 @imemo_type_p(i64 noundef %0, i32 noundef %1) #7 {
  %3 = alloca i32, align 4
  %4 = alloca i64, align 8
  %5 = alloca i32, align 4
  %6 = alloca i64, align 8
  %7 = alloca i64, align 8
  store i64 %0, ptr %4, align 8, !tbaa !13
  store i32 %1, ptr %5, align 4, !tbaa !11
  %8 = load i64, ptr %4, align 8, !tbaa !13
  %9 = call zeroext i1 @RB_SPECIAL_CONST_P(i64 noundef %8) #27
  %10 = xor i1 %9, true
  %11 = xor i1 %10, true
  %12 = xor i1 %11, true
  %13 = zext i1 %12 to i32
  %14 = sext i32 %13 to i64
  %15 = call i64 @llvm.expect.i64(i64 %14, i64 1)
  %16 = icmp ne i64 %15, 0
  br i1 %16, label %17, label %30

17:                                               ; preds = %2
  call void @llvm.lifetime.start.p0(i64 8, ptr %6) #5
  store i64 61471, ptr %6, align 8, !tbaa !13
  call void @llvm.lifetime.start.p0(i64 8, ptr %7) #5
  %18 = load i32, ptr %5, align 4, !tbaa !11
  %19 = shl i32 %18, 12
  %20 = or i32 %19, 26
  %21 = zext i32 %20 to i64
  store i64 %21, ptr %7, align 8, !tbaa !13
  %22 = load i64, ptr %7, align 8, !tbaa !13
  %23 = load i64, ptr %4, align 8, !tbaa !13
  %24 = inttoptr i64 %23 to ptr
  %25 = getelementptr inbounds nuw %struct.RBasic, ptr %24, i32 0, i32 0
  %26 = load i64, ptr %25, align 8, !tbaa !107
  %27 = and i64 %26, 61471
  %28 = icmp eq i64 %22, %27
  %29 = zext i1 %28 to i32
  store i32 %29, ptr %3, align 4
  call void @llvm.lifetime.end.p0(i64 8, ptr %7) #5
  call void @llvm.lifetime.end.p0(i64 8, ptr %6) #5
  br label %31

30:                                               ; preds = %2
  store i32 0, ptr %3, align 4
  br label %31

31:                                               ; preds = %30, %17
  %32 = load i32, ptr %3, align 4
  ret i32 %32
}

; Function Attrs: inlinehint nounwind sspstrong uwtable
define internal i32 @rb_obj_is_iseq(i64 noundef %0) #7 {
  %2 = alloca i64, align 8
  store i64 %0, ptr %2, align 8, !tbaa !13
  %3 = load i64, ptr %2, align 8, !tbaa !13
  %4 = call i32 @imemo_type_p(i64 noundef %3, i32 noundef 7)
  ret i32 %4
}

; Function Attrs: nounwind sspstrong uwtable
define internal i32 @for_each_iseq_i(ptr noundef %0, ptr noundef %1, i64 noundef %2, ptr noundef %3) #0 {
  %5 = alloca ptr, align 8
  %6 = alloca ptr, align 8
  %7 = alloca i64, align 8
  %8 = alloca ptr, align 8
  %9 = alloca ptr, align 8
  %10 = alloca i64, align 8
  %11 = alloca ptr, align 8
  %12 = alloca ptr, align 8
  store ptr %0, ptr %5, align 8, !tbaa !7
  store ptr %1, ptr %6, align 8, !tbaa !7
  store i64 %2, ptr %7, align 8, !tbaa !13
  store ptr %3, ptr %8, align 8, !tbaa !7
  call void @llvm.lifetime.start.p0(i64 8, ptr %9) #5
  %13 = load ptr, ptr %8, align 8, !tbaa !7
  store ptr %13, ptr %9, align 8, !tbaa !177
  call void @llvm.lifetime.start.p0(i64 8, ptr %10) #5
  %14 = load ptr, ptr %5, align 8, !tbaa !7
  %15 = ptrtoint ptr %14 to i64
  store i64 %15, ptr %10, align 8, !tbaa !13
  br label %16

16:                                               ; preds = %39, %4
  %17 = load i64, ptr %10, align 8, !tbaa !13
  %18 = load ptr, ptr %6, align 8, !tbaa !7
  %19 = ptrtoint ptr %18 to i64
  %20 = icmp ne i64 %17, %19
  br i1 %20, label %21, label %43

21:                                               ; preds = %16
  call void @llvm.lifetime.start.p0(i64 8, ptr %11) #5
  %22 = load i64, ptr %10, align 8, !tbaa !13
  %23 = call ptr @rb_asan_poisoned_object_p(i64 noundef %22)
  store ptr %23, ptr %11, align 8, !tbaa !7
  %24 = load i64, ptr %10, align 8, !tbaa !13
  call void @rb_asan_unpoison_object(i64 noundef %24, i1 noundef zeroext false)
  %25 = load i64, ptr %10, align 8, !tbaa !13
  %26 = call i32 @rb_obj_is_iseq(i64 noundef %25)
  %27 = icmp ne i32 %26, 0
  br i1 %27, label %28, label %38

28:                                               ; preds = %21
  call void @llvm.lifetime.start.p0(i64 8, ptr %12) #5
  %29 = load i64, ptr %10, align 8, !tbaa !13
  %30 = inttoptr i64 %29 to ptr
  store ptr %30, ptr %12, align 8, !tbaa !87
  %31 = load ptr, ptr %9, align 8, !tbaa !177
  %32 = getelementptr inbounds nuw %struct.iseq_callback_data, ptr %31, i32 0, i32 0
  %33 = load ptr, ptr %32, align 8, !tbaa !174
  %34 = load ptr, ptr %12, align 8, !tbaa !87
  %35 = load ptr, ptr %9, align 8, !tbaa !177
  %36 = getelementptr inbounds nuw %struct.iseq_callback_data, ptr %35, i32 0, i32 1
  %37 = load ptr, ptr %36, align 8, !tbaa !176
  call void %33(ptr noundef %34, ptr noundef %37)
  call void @llvm.lifetime.end.p0(i64 8, ptr %12) #5
  br label %38

38:                                               ; preds = %28, %21
  call void @llvm.lifetime.end.p0(i64 8, ptr %11) #5
  br label %39

39:                                               ; preds = %38
  %40 = load i64, ptr %7, align 8, !tbaa !13
  %41 = load i64, ptr %10, align 8, !tbaa !13
  %42 = add i64 %41, %40
  store i64 %42, ptr %10, align 8, !tbaa !13
  br label %16, !llvm.loop !179

43:                                               ; preds = %16
  call void @llvm.lifetime.end.p0(i64 8, ptr %10) #5
  call void @llvm.lifetime.end.p0(i64 8, ptr %9) #5
  ret i32 0
}