; Function Attrs: nounwind sspstrong uwtable
define internal noundef i32 @for_each_iseq_i(ptr noundef %0, ptr noundef %1, i64 noundef %2, ptr noundef readonly captures(none) %3) #0 {
  %5 = ptrtoint ptr %1 to i64
  %.not16 = icmp eq ptr %0, %1
  br i1 %.not16, label %._crit_edge, label %.lr.ph

.lr.ph:                                           ; preds = %4
  %6 = ptrtoint ptr %0 to i64
  %7 = getelementptr inbounds nuw i8, ptr %3, i64 8
  br label %8

8:                                                ; preds = %.lr.ph, %rb_obj_is_iseq.exit.thread
  %.017 = phi i64 [ %6, %.lr.ph ], [ %20, %rb_obj_is_iseq.exit.thread ]
  %9 = tail call ptr @rb_asan_poisoned_object_p(i64 noundef %.017) #5
  tail call void @rb_asan_unpoison_object(i64 noundef %.017, i1 noundef zeroext false) #5
  %10 = icmp eq i64 %.017, 0
  %11 = and i64 %.017, 7
  %12 = icmp ne i64 %11, 0
  %13 = or i1 %10, %12
  br i1 %13, label %rb_obj_is_iseq.exit.thread, label %rb_obj_is_iseq.exit, !prof !113

rb_obj_is_iseq.exit:                              ; preds = %8
  %14 = inttoptr i64 %.017 to ptr
  %15 = load i64, ptr %14, align 8, !tbaa !11
  %16 = and i64 %15, 61471
  %.not15 = icmp eq i64 %16, 28698
  br i1 %.not15, label %17, label %rb_obj_is_iseq.exit.thread

17:                                               ; preds = %rb_obj_is_iseq.exit
  %18 = load ptr, ptr %3, align 8, !tbaa !190
  %19 = load ptr, ptr %7, align 8, !tbaa !192
  tail call void %18(ptr noundef nonnull %14, ptr noundef %19) #5
  br label %rb_obj_is_iseq.exit.thread

rb_obj_is_iseq.exit.thread:                       ; preds = %8, %17, %rb_obj_is_iseq.exit
  %20 = add i64 %.017, %2
  %.not = icmp eq i64 %20, %5
  br i1 %.not, label %._crit_edge, label %8, !llvm.loop !193

._crit_edge:                                      ; preds = %rb_obj_is_iseq.exit.thread, %4
  ret i32 0
}